target datalayout = "e-m:e-p270:32:32-p271:32:32-p272:64:64-i64:64-i128:128-f80:128-n8:16:32:64-S128"
target triple = "x86_64-pc-linux-gnu"

%struct._GtkDarktableExpander = type { %struct._GtkBox, i32, ptr, ptr, ptr, ptr, ptr }
%struct._GtkBox = type { %struct._GtkContainer, ptr }
%struct._GtkContainer = type { %struct._GtkWidget, ptr }
%struct._GtkWidget = type { %struct._GObject, ptr }
%struct._GObject = type { %struct._GTypeInstance, i32, ptr }
%struct._GTypeInstance = type { ptr }
%struct._GTypeClass = type { i64 }

@dtgtk_expander_get_type.static_g_define_type_id = internal global i64 0, align 8
@__func__.dtgtk_expander_new = private unnamed_addr constant [19 x i8] c"dtgtk_expander_new\00", align 1
@.str.4 = private unnamed_addr constant [22 x i8] c"GTK_IS_WIDGET(header)\00", align 1
@.str.5 = private unnamed_addr constant [12 x i8] c"orientation\00", align 1
@.str.6 = private unnamed_addr constant [8 x i8] c"spacing\00", align 1
@.str.7 = private unnamed_addr constant [11 x i8] c"drag-begin\00", align 1
@.str.8 = private unnamed_addr constant [9 x i8] c"drag-end\00", align 1
@.str.9 = private unnamed_addr constant [11 x i8] c"drag-leave\00", align 1
@.str.10 = private unnamed_addr constant [14 x i8] c"size-allocate\00", align 1

; Function Attrs: nounwind uwtable
define i64 @dtgtk_expander_get_type() #0 {
  %1 = alloca i32, align 4
  %2 = alloca i64, align 8
  %3 = alloca ptr, align 8
  %4 = alloca i64, align 8
  %5 = alloca i64, align 8
  call void @llvm.lifetime.start.p0(i64 8, ptr %2) #10
  call void @llvm.lifetime.start.p0(i64 8, ptr %3) #10
  store ptr @dtgtk_expander_get_type.static_g_define_type_id, ptr %3, align 8, !tbaa !6
  %6 = load ptr, ptr %3, align 8, !tbaa !6
  %7 = load atomic i64, ptr %6 seq_cst, align 8
  store i64 %7, ptr %2, align 8
  %8 = load i64, ptr %2, align 8, !tbaa !11
  store i64 %8, ptr %4, align 8, !tbaa !11
  call void @llvm.lifetime.end.p0(i64 8, ptr %3) #10
  call void @llvm.lifetime.end.p0(i64 8, ptr %2) #10
  %9 = load i64, ptr %4, align 8, !tbaa !11
  %10 = icmp ne i64 %9, 0
  br i1 %10, label %14, label %11

11:                                               ; preds = %0
  %12 = call i32 @g_once_init_enter(ptr noundef @dtgtk_expander_get_type.static_g_define_type_id)
  %13 = icmp ne i32 %12, 0
  br label %14

14:                                               ; preds = %11, %0
  %15 = phi i1 [ false, %0 ], [ %13, %11 ]
  %16 = zext i1 %15 to i32
  store i32 %16, ptr %1, align 4, !tbaa !13
  %17 = load i32, ptr %1, align 4, !tbaa !13
  %18 = icmp ne i32 %17, 0
  br i1 %18, label %19, label %22

19:                                               ; preds = %14
  call void @llvm.lifetime.start.p0(i64 8, ptr %5) #10
  %20 = call i64 @dtgtk_expander_get_type_once()
  store i64 %20, ptr %5, align 8, !tbaa !11
  %21 = load i64, ptr %5, align 8, !tbaa !11
  call void @g_once_init_leave(ptr noundef @dtgtk_expander_get_type.static_g_define_type_id, i64 noundef %21)
  call void @llvm.lifetime.end.p0(i64 8, ptr %5) #10
  br label %22

22:                                               ; preds = %19, %14
  %23 = load i64, ptr @dtgtk_expander_get_type.static_g_define_type_id, align 8, !tbaa !11
  ret i64 %23
}

; Function Attrs: nounwind uwtable
define ptr @dtgtk_expander_new(ptr noundef %0, ptr noundef %1) #0 {
  %3 = alloca ptr, align 8
  %4 = alloca ptr, align 8
  %5 = alloca ptr, align 8
  %6 = alloca ptr, align 8
  %7 = alloca i32, align 4
  %8 = alloca ptr, align 8
  %9 = alloca i64, align 8
  %10 = alloca i32, align 4
  %11 = alloca i32, align 4
  %12 = alloca i32, align 4
  %13 = alloca i32, align 4
  %14 = alloca ptr, align 8
  store ptr %0, ptr %4, align 8, !tbaa !41
  store ptr %1, ptr %5, align 8, !tbaa !41
  call void @llvm.lifetime.start.p0(i64 8, ptr %6) #10
  br label %15

15:                                               ; preds = %2
  call void @llvm.lifetime.start.p0(i64 4, ptr %7) #10
  call void @llvm.lifetime.start.p0(i64 8, ptr %8) #10
  %16 = load ptr, ptr %4, align 8, !tbaa !41
  store ptr %16, ptr %8, align 8, !tbaa !31
  call void @llvm.lifetime.start.p0(i64 8, ptr %9) #10
  %17 = call i64 @gtk_widget_get_type() #11
  store i64 %17, ptr %9, align 8, !tbaa !11
  call void @llvm.lifetime.start.p0(i64 4, ptr %10) #10
  %18 = load ptr, ptr %8, align 8, !tbaa !31
  %19 = icmp ne ptr %18, null
  br i1 %19, label %21, label %20

20:                                               ; preds = %15
  store i32 0, ptr %10, align 4, !tbaa !13
  br label %40

21:                                               ; preds = %15
  %22 = load ptr, ptr %8, align 8, !tbaa !31
  %23 = getelementptr inbounds nuw %struct._GTypeInstance, ptr %22, i32 0, i32 0
  %24 = load ptr, ptr %23, align 8, !tbaa !33
  %25 = icmp ne ptr %24, null
  br i1 %25, label %26, label %35

26:                                               ; preds = %21
  %27 = load ptr, ptr %8, align 8, !tbaa !31
  %28 = getelementptr inbounds nuw %struct._GTypeInstance, ptr %27, i32 0, i32 0
  %29 = load ptr, ptr %28, align 8, !tbaa !33
  %30 = getelementptr inbounds nuw %struct._GTypeClass, ptr %29, i32 0, i32 0
  %31 = load i64, ptr %30, align 8, !tbaa !34
  %32 = load i64, ptr %9, align 8, !tbaa !11
  %33 = icmp eq i64 %31, %32
  br i1 %33, label %34, label %35

34:                                               ; preds = %26
  store i32 1, ptr %10, align 4, !tbaa !13
  br label %39

35:                                               ; preds = %26, %21
  %36 = load ptr, ptr %8, align 8, !tbaa !31
  %37 = load i64, ptr %9, align 8, !tbaa !11
  %38 = call i32 @g_type_check_instance_is_a(ptr noundef %36, i64 noundef %37) #12
  store i32 %38, ptr %10, align 4, !tbaa !13
  br label %39

39:                                               ; preds = %35, %34
  br label %40

40:                                               ; preds = %39, %20
  %41 = load i32, ptr %10, align 4, !tbaa !13
  store i32 %41, ptr %11, align 4, !tbaa !13
  call void @llvm.lifetime.end.p0(i64 4, ptr %10) #10
  call void @llvm.lifetime.end.p0(i64 8, ptr %9) #10
  call void @llvm.lifetime.end.p0(i64 8, ptr %8) #10
  %42 = load i32, ptr %11, align 4, !tbaa !13
  %43 = icmp ne i32 %42, 0
  br i1 %43, label %44, label %45

44:                                               ; preds = %40
  store i32 1, ptr %7, align 4, !tbaa !13
  br label %46

45:                                               ; preds = %40
  store i32 0, ptr %7, align 4, !tbaa !13
  br label %46

46:                                               ; preds = %45, %44
  %47 = load i32, ptr %7, align 4, !tbaa !13
  store i32 %47, ptr %12, align 4, !tbaa !13
  call void @llvm.lifetime.end.p0(i64 4, ptr %7) #10
  %48 = load i32, ptr %12, align 4, !tbaa !13
  %49 = sext i32 %48 to i64
  %50 = call i64 @llvm.expect.i64(i64 %49, i64 1)
  %51 = icmp ne i64 %50, 0
  br i1 %51, label %52, label %53

52:                                               ; preds = %46
  br label %54

53:                                               ; preds = %46
  call void @g_return_if_fail_warning(ptr noundef null, ptr noundef @__func__.dtgtk_expander_new, ptr noundef @.str.4)
  store ptr null, ptr %3, align 8
  store i32 1, ptr %13, align 4
  br label %149

54:                                               ; preds = %52
  br label %55

55:                                               ; preds = %54
  br label %56

56:                                               ; preds = %55
  %57 = call i64 @dtgtk_expander_get_type()
  %58 = call ptr (i64, ptr, ...) @g_object_new(i64 noundef %57, ptr noundef @.str.5, i32 noundef 1, ptr noundef @.str.6, i32 noundef 0, ptr noundef null)
  store ptr %58, ptr %6, align 8, !tbaa !15
  %59 = load ptr, ptr %6, align 8, !tbaa !15
  %60 = getelementptr inbounds nuw %struct._GtkDarktableExpander, ptr %59, i32 0, i32 1
  store i32 1, ptr %60, align 8, !tbaa !40
  %61 = load ptr, ptr %4, align 8, !tbaa !41
  %62 = load ptr, ptr %6, align 8, !tbaa !15
  %63 = getelementptr inbounds nuw %struct._GtkDarktableExpander, ptr %62, i32 0, i32 3
  store ptr %61, ptr %63, align 8, !tbaa !36
  %64 = load ptr, ptr %5, align 8, !tbaa !41
  %65 = load ptr, ptr %6, align 8, !tbaa !15
  %66 = getelementptr inbounds nuw %struct._GtkDarktableExpander, ptr %65, i32 0, i32 5
  store ptr %64, ptr %66, align 8, !tbaa !38
  %67 = call ptr @gtk_event_box_new()
  %68 = load ptr, ptr %6, align 8, !tbaa !15
  %69 = getelementptr inbounds nuw %struct._GtkDarktableExpander, ptr %68, i32 0, i32 4
  store ptr %67, ptr %69, align 8, !tbaa !37
  %70 = load ptr, ptr %6, align 8, !tbaa !15
  %71 = getelementptr inbounds nuw %struct._GtkDarktableExpander, ptr %70, i32 0, i32 4
  %72 = load ptr, ptr %71, align 8, !tbaa !37
  %73 = call i64 @gtk_container_get_type() #11
  %74 = call ptr @g_type_check_instance_cast(ptr noundef %72, i64 noundef %73)
  %75 = load ptr, ptr %6, align 8, !tbaa !15
  %76 = getelementptr inbounds nuw %struct._GtkDarktableExpander, ptr %75, i32 0, i32 3
  %77 = load ptr, ptr %76, align 8, !tbaa !36
  call void @gtk_container_add(ptr noundef %74, ptr noundef %77)
  %78 = call ptr @gtk_event_box_new()
  %79 = load ptr, ptr %6, align 8, !tbaa !15
  %80 = getelementptr inbounds nuw %struct._GtkDarktableExpander, ptr %79, i32 0, i32 6
  store ptr %78, ptr %80, align 8, !tbaa !39
  %81 = load ptr, ptr %6, align 8, !tbaa !15
  %82 = getelementptr inbounds nuw %struct._GtkDarktableExpander, ptr %81, i32 0, i32 5
  %83 = load ptr, ptr %82, align 8, !tbaa !38
  %84 = icmp ne ptr %83, null
  br i1 %84, label %85, label %94

85:                                               ; preds = %56
  %86 = load ptr, ptr %6, align 8, !tbaa !15
  %87 = getelementptr inbounds nuw %struct._GtkDarktableExpander, ptr %86, i32 0, i32 6
  %88 = load ptr, ptr %87, align 8, !tbaa !39
  %89 = call i64 @gtk_container_get_type() #11
  %90 = call ptr @g_type_check_instance_cast(ptr noundef %88, i64 noundef %89)
  %91 = load ptr, ptr %6, align 8, !tbaa !15
  %92 = getelementptr inbounds nuw %struct._GtkDarktableExpander, ptr %91, i32 0, i32 5
  %93 = load ptr, ptr %92, align 8, !tbaa !38
  call void @gtk_container_add(ptr noundef %90, ptr noundef %93)
  br label %94

94:                                               ; preds = %85, %56
  call void @llvm.lifetime.start.p0(i64 8, ptr %14) #10
  %95 = call ptr @gtk_frame_new(ptr noundef null)
  store ptr %95, ptr %14, align 8, !tbaa !41
  %96 = load ptr, ptr %14, align 8, !tbaa !41
  %97 = call i64 @gtk_container_get_type() #11
  %98 = call ptr @g_type_check_instance_cast(ptr noundef %96, i64 noundef %97)
  %99 = load ptr, ptr %6, align 8, !tbaa !15
  %100 = getelementptr inbounds nuw %struct._GtkDarktableExpander, ptr %99, i32 0, i32 6
  %101 = load ptr, ptr %100, align 8, !tbaa !39
  call void @gtk_container_add(ptr noundef %98, ptr noundef %101)
  %102 = call ptr @gtk_revealer_new()
  %103 = load ptr, ptr %6, align 8, !tbaa !15
  %104 = getelementptr inbounds nuw %struct._GtkDarktableExpander, ptr %103, i32 0, i32 2
  store ptr %102, ptr %104, align 8, !tbaa !17
  %105 = load ptr, ptr %6, align 8, !tbaa !15
  %106 = getelementptr inbounds nuw %struct._GtkDarktableExpander, ptr %105, i32 0, i32 2
  %107 = load ptr, ptr %106, align 8, !tbaa !17
  %108 = call i64 @gtk_revealer_get_type() #11
  %109 = call ptr @g_type_check_instance_cast(ptr noundef %107, i64 noundef %108)
  call void @gtk_revealer_set_transition_duration(ptr noundef %109, i32 noundef 0)
  %110 = load ptr, ptr %6, align 8, !tbaa !15
  %111 = getelementptr inbounds nuw %struct._GtkDarktableExpander, ptr %110, i32 0, i32 2
  %112 = load ptr, ptr %111, align 8, !tbaa !17
  %113 = call i64 @gtk_revealer_get_type() #11
  %114 = call ptr @g_type_check_instance_cast(ptr noundef %112, i64 noundef %113)
  call void @gtk_revealer_set_reveal_child(ptr noundef %114, i32 noundef 1)
  %115 = load ptr, ptr %6, align 8, !tbaa !15
  %116 = getelementptr inbounds nuw %struct._GtkDarktableExpander, ptr %115, i32 0, i32 2
  %117 = load ptr, ptr %116, align 8, !tbaa !17
  %118 = call i64 @gtk_container_get_type() #11
  %119 = call ptr @g_type_check_instance_cast(ptr noundef %117, i64 noundef %118)
  %120 = load ptr, ptr %14, align 8, !tbaa !41
  call void @gtk_container_add(ptr noundef %119, ptr noundef %120)
  %121 = load ptr, ptr %6, align 8, !tbaa !15
  %122 = call i64 @gtk_box_get_type() #11
  %123 = call ptr @g_type_check_instance_cast(ptr noundef %121, i64 noundef %122)
  %124 = load ptr, ptr %6, align 8, !tbaa !15
  %125 = getelementptr inbounds nuw %struct._GtkDarktableExpander, ptr %124, i32 0, i32 4
  %126 = load ptr, ptr %125, align 8, !tbaa !37
  call void @gtk_box_pack_start(ptr noundef %123, ptr noundef %126, i32 noundef 1, i32 noundef 0, i32 noundef 0)
  %127 = load ptr, ptr %6, align 8, !tbaa !15
  %128 = call i64 @gtk_box_get_type() #11
  %129 = call ptr @g_type_check_instance_cast(ptr noundef %127, i64 noundef %128)
  %130 = load ptr, ptr %6, align 8, !tbaa !15
  %131 = getelementptr inbounds nuw %struct._GtkDarktableExpander, ptr %130, i32 0, i32 2
  %132 = load ptr, ptr %131, align 8, !tbaa !17
  call void @gtk_box_pack_start(ptr noundef %129, ptr noundef %132, i32 noundef 1, i32 noundef 0, i32 noundef 0)
  %133 = load ptr, ptr %6, align 8, !tbaa !15
  %134 = getelementptr inbounds nuw %struct._GtkDarktableExpander, ptr %133, i32 0, i32 4
  %135 = load ptr, ptr %134, align 8, !tbaa !37
  %136 = call i64 @g_signal_connect_data(ptr noundef %135, ptr noundef @.str.7, ptr noundef @_expander_drag_begin, ptr noundef null, ptr noundef null, i32 noundef 0)
  %137 = load ptr, ptr %6, align 8, !tbaa !15
  %138 = getelementptr inbounds nuw %struct._GtkDarktableExpander, ptr %137, i32 0, i32 4
  %139 = load ptr, ptr %138, align 8, !tbaa !37
  %140 = call i64 @g_signal_connect_data(ptr noundef %139, ptr noundef @.str.8, ptr noundef @_expander_drag_end, ptr noundef null, ptr noundef null, i32 noundef 0)
  %141 = load ptr, ptr %6, align 8, !tbaa !15
  %142 = call i64 @g_signal_connect_data(ptr noundef %141, ptr noundef @.str.9, ptr noundef @_expander_drag_leave, ptr noundef null, ptr noundef null, i32 noundef 0)
  %143 = load ptr, ptr %6, align 8, !tbaa !15
  %144 = load ptr, ptr %14, align 8, !tbaa !41
  %145 = call i64 @g_signal_connect_data(ptr noundef %143, ptr noundef @.str.10, ptr noundef @_expander_resize, ptr noundef %144, ptr noundef null, i32 noundef 0)
  %146 = load ptr, ptr %6, align 8, !tbaa !15
  %147 = call i64 @gtk_widget_get_type() #11
  %148 = call ptr @g_type_check_instance_cast(ptr noundef %146, i64 noundef %147)
  store ptr %148, ptr %3, align 8
  store i32 1, ptr %13, align 4
  call void @llvm.lifetime.end.p0(i64 8, ptr %14) #10
  br label %149

149:                                              ; preds = %94, %53
  call void @llvm.lifetime.end.p0(i64 8, ptr %6) #10
  %150 = load ptr, ptr %3, align 8
  ret ptr %150
}