; Function Attrs: nounwind uwtable
define ptr @dtgtk_expander_new(ptr noundef %0, ptr noundef %1) local_unnamed_addr #0 {
  %3 = tail call i64 @gtk_widget_get_type() #11
  %.not = icmp eq ptr %0, null
  br i1 %.not, label %.critedge, label %4

4:                                                ; preds = %2
  %5 = load ptr, ptr %0, align 8, !tbaa !10
  %.not44 = icmp eq ptr %5, null
  br i1 %.not44, label %9, label %6

6:                                                ; preds = %4
  %7 = load i64, ptr %5, align 8, !tbaa !14
  %8 = icmp eq i64 %7, %3
  br i1 %8, label %.critedge49, label %9

9:                                                ; preds = %6, %4
  %10 = tail call i32 @g_type_check_instance_is_a(ptr noundef nonnull %0, i64 noundef %3) #12
  %11 = icmp eq i32 %10, 0
  br i1 %11, label %.critedge, label %.critedge49, !prof !38

.critedge:                                        ; preds = %2, %9
  tail call void @g_return_if_fail_warning(ptr noundef null, ptr noundef nonnull @__func__.dtgtk_expander_new, ptr noundef nonnull @.str.4) #10
  br label %57

.critedge49:                                      ; preds = %6, %9
  %12 = load atomic i64, ptr @dtgtk_expander_get_type.static_g_define_type_id seq_cst, align 8
  %.not.i = icmp eq i64 %12, 0
  br i1 %.not.i, label %13, label %dtgtk_expander_get_type.exit

13:                                               ; preds = %.critedge49
  %14 = tail call i32 @g_once_init_enter(ptr noundef nonnull @dtgtk_expander_get_type.static_g_define_type_id) #10
  %.not4.i = icmp eq i32 %14, 0
  br i1 %.not4.i, label %dtgtk_expander_get_type.exit, label %15

15:                                               ; preds = %13
  %16 = tail call fastcc i64 @dtgtk_expander_get_type_once()
  tail call void @g_once_init_leave(ptr noundef nonnull @dtgtk_expander_get_type.static_g_define_type_id, i64 noundef %16) #10
  br label %dtgtk_expander_get_type.exit

dtgtk_expander_get_type.exit:                     ; preds = %.critedge49, %13, %15
  %17 = load i64, ptr @dtgtk_expander_get_type.static_g_define_type_id, align 8, !tbaa !6
  %18 = tail call ptr (i64, ptr, ...) @g_object_new(i64 noundef %17, ptr noundef nonnull @.str.5, i32 noundef 1, ptr noundef nonnull @.str.6, i32 noundef 0, ptr noundef null) #10
  %19 = getelementptr inbounds nuw i8, ptr %18, i64 48
  store i32 1, ptr %19, align 8, !tbaa !33
  %20 = getelementptr inbounds nuw i8, ptr %18, i64 64
  store ptr %0, ptr %20, align 8, !tbaa !29
  %21 = getelementptr inbounds nuw i8, ptr %18, i64 80
  store ptr %1, ptr %21, align 8, !tbaa !31
  %22 = tail call ptr @gtk_event_box_new() #10
  %23 = getelementptr inbounds nuw i8, ptr %18, i64 72
  store ptr %22, ptr %23, align 8, !tbaa !30
  %24 = tail call i64 @gtk_container_get_type() #11
  %25 = tail call ptr @g_type_check_instance_cast(ptr noundef %22, i64 noundef %24) #10
  %26 = load ptr, ptr %20, align 8, !tbaa !29
  tail call void @gtk_container_add(ptr noundef %25, ptr noundef %26) #10
  %27 = tail call ptr @gtk_event_box_new() #10
  %28 = getelementptr inbounds nuw i8, ptr %18, i64 88
  store ptr %27, ptr %28, align 8, !tbaa !32
  %29 = load ptr, ptr %21, align 8, !tbaa !31
  %.not47 = icmp eq ptr %29, null
  br i1 %.not47, label %33, label %30

30:                                               ; preds = %dtgtk_expander_get_type.exit
  %31 = tail call ptr @g_type_check_instance_cast(ptr noundef %27, i64 noundef %24) #10
  %32 = load ptr, ptr %21, align 8, !tbaa !31
  tail call void @gtk_container_add(ptr noundef %31, ptr noundef %32) #10
  br label %33

33:                                               ; preds = %30, %dtgtk_expander_get_type.exit
  %34 = tail call ptr @gtk_frame_new(ptr noundef null) #10
  %35 = tail call ptr @g_type_check_instance_cast(ptr noundef %34, i64 noundef %24) #10
  %36 = load ptr, ptr %28, align 8, !tbaa !32
  tail call void @gtk_container_add(ptr noundef %35, ptr noundef %36) #10
  %37 = tail call ptr @gtk_revealer_new() #10
  %38 = getelementptr inbounds nuw i8, ptr %18, i64 56
  store ptr %37, ptr %38, align 8, !tbaa !17
  %39 = tail call i64 @gtk_revealer_get_type() #11
  %40 = tail call ptr @g_type_check_instance_cast(ptr noundef %37, i64 noundef %39) #10
  tail call void @gtk_revealer_set_transition_duration(ptr noundef %40, i32 noundef 0) #10
  %41 = load ptr, ptr %38, align 8, !tbaa !17
  %42 = tail call ptr @g_type_check_instance_cast(ptr noundef %41, i64 noundef %39) #10
  tail call void @gtk_revealer_set_reveal_child(ptr noundef %42, i32 noundef 1) #10
  %43 = load ptr, ptr %38, align 8, !tbaa !17
  %44 = tail call ptr @g_type_check_instance_cast(ptr noundef %43, i64 noundef %24) #10
  tail call void @gtk_container_add(ptr noundef %44, ptr noundef %34) #10
  %45 = tail call i64 @gtk_box_get_type() #11
  %46 = tail call ptr @g_type_check_instance_cast(ptr noundef nonnull %18, i64 noundef %45) #10
  %47 = load ptr, ptr %23, align 8, !tbaa !30
  tail call void @gtk_box_pack_start(ptr noundef %46, ptr noundef %47, i32 noundef 1, i32 noundef 0, i32 noundef 0) #10
  %48 = tail call ptr @g_type_check_instance_cast(ptr noundef nonnull %18, i64 noundef %45) #10
  %49 = load ptr, ptr %38, align 8, !tbaa !17
  tail call void @gtk_box_pack_start(ptr noundef %48, ptr noundef %49, i32 noundef 1, i32 noundef 0, i32 noundef 0) #10
  %50 = load ptr, ptr %23, align 8, !tbaa !30
  %51 = tail call i64 @g_signal_connect_data(ptr noundef %50, ptr noundef nonnull @.str.7, ptr noundef nonnull @_expander_drag_begin, ptr noundef null, ptr noundef null, i32 noundef 0) #10
  %52 = load ptr, ptr %23, align 8, !tbaa !30
  %53 = tail call i64 @g_signal_connect_data(ptr noundef %52, ptr noundef nonnull @.str.8, ptr noundef nonnull @_expander_drag_end, ptr noundef null, ptr noundef null, i32 noundef 0) #10
  %54 = tail call i64 @g_signal_connect_data(ptr noundef nonnull %18, ptr noundef nonnull @.str.9, ptr noundef nonnull @_expander_drag_leave, ptr noundef null, ptr noundef null, i32 noundef 0) #10
  %55 = tail call i64 @g_signal_connect_data(ptr noundef nonnull %18, ptr noundef nonnull @.str.10, ptr noundef nonnull @_expander_resize, ptr noundef %34, ptr noundef null, i32 noundef 0) #10
  %56 = tail call ptr @g_type_check_instance_cast(ptr noundef nonnull %18, i64 noundef %3) #10
  br label %57

57:                                               ; preds = %33, %.critedge
  %.0 = phi ptr [ %56, %33 ], [ null, %.critedge ]
  ret ptr %.0
}